target datalayout = "e-m:e-p270:32:32-p271:32:32-p272:64:64-i64:64-i128:128-f80:128-n8:16:32:64-S128"
target triple = "x86_64-pc-linux-gnu"

@hf_gsm_a_sm_nbifom_cont = internal global i32 0, align 4
@nbifom_handle = internal global ptr null, align 8

; Function Attrs: null_pointer_is_valid sspstrong uwtable
define internal zeroext i16 @de_sm_nbifom_cont(ptr noundef %0, ptr noundef %1, ptr noundef %2, i32 noundef %3, i32 noundef %4, ptr noundef %5, i32 noundef %6) #1 {
  %8 = alloca ptr, align 8
  %9 = alloca ptr, align 8
  %10 = alloca ptr, align 8
  %11 = alloca i32, align 4
  %12 = alloca i32, align 4
  %13 = alloca ptr, align 8
  %14 = alloca i32, align 4
  %15 = alloca ptr, align 8
  store ptr %0, ptr %8, align 8
  store ptr %1, ptr %9, align 8
  store ptr %2, ptr %10, align 8
  store i32 %3, ptr %11, align 4
  store i32 %4, ptr %12, align 4
  store ptr %5, ptr %13, align 8
  store i32 %6, ptr %14, align 4
  %16 = load ptr, ptr @nbifom_handle, align 8
  %17 = icmp ne ptr %16, null
  br i1 %17, label %18, label %28

18:                                               ; preds = %7
  call void @llvm.lifetime.start.p0(i64 8, ptr %15) #6
  %19 = load ptr, ptr %8, align 8
  %20 = load i32, ptr %11, align 4
  %21 = load i32, ptr %12, align 4
  %22 = call ptr @tvb_new_subset_length(ptr noundef %19, i32 noundef %20, i32 noundef %21)
  store ptr %22, ptr %15, align 8
  %23 = load ptr, ptr @nbifom_handle, align 8
  %24 = load ptr, ptr %15, align 8
  %25 = load ptr, ptr %10, align 8
  %26 = load ptr, ptr %9, align 8
  %27 = call i32 @call_dissector(ptr noundef %23, ptr noundef %24, ptr noundef %25, ptr noundef %26)
  call void @llvm.lifetime.end.p0(i64 8, ptr %15) #6
  br label %35

28:                                               ; preds = %7
  %29 = load ptr, ptr %9, align 8
  %30 = load i32, ptr @hf_gsm_a_sm_nbifom_cont, align 4
  %31 = load ptr, ptr %8, align 8
  %32 = load i32, ptr %11, align 4
  %33 = load i32, ptr %12, align 4
  %34 = call ptr @proto_tree_add_item(ptr noundef %29, i32 noundef %30, ptr noundef %31, i32 noundef %32, i32 noundef %33, i32 noundef 0)
  br label %35

35:                                               ; preds = %28, %18
  %36 = load i32, ptr %12, align 4
  %37 = trunc i32 %36 to i16
  ret i16 %37
}